target datalayout = "e-m:e-p270:32:32-p271:32:32-p272:64:64-i64:64-i128:128-f80:128-n8:16:32:64-S128"
target triple = "x86_64-pc-linux-gnu"

%class.G1CMIsAliveClosure = type { %class.BoolObjectClosure, ptr }
%class.BoolObjectClosure = type { ptr }
%class.BitMap = type { ptr, i64 }
%class.G1MappingChangedListener = type { ptr }
%class.MemRegion = type { ptr, i64 }
%class.G1CMSubjectToDiscoveryClosure = type { %class.BoolObjectClosure, ptr }
%class.G1HeapRegion = type { ptr, ptr, ptr, ptr, ptr, ptr, i32, %class.G1HeapRegionType, ptr, i32, ptr, ptr, ptr, i64, i32, ptr, i32, i32, i64 }
%class.G1HeapRegionType = type { i32 }
%class.G1STWIsAliveClosure = type { %class.BoolObjectClosure, ptr }
%class.G1CollectionSet = type { ptr, ptr, %class.G1CollectionSetCandidates, ptr, i32, i32, i32, i32, i32, %class.G1CollectionCandidateRegionList, i32, i64 }
%class.G1CollectionSetCandidates = type { [8 x i8], %class.G1CollectionCandidateList, %class.G1CollectionCandidateList, ptr, i32, i32 }
%class.G1CollectionCandidateList = type { %class.GrowableArray }
%class.GrowableArray = type { %class.GrowableArrayWithAllocator, %class.GrowableArrayMetadata }
%class.GrowableArrayWithAllocator = type { %class.GrowableArrayView }
%class.GrowableArrayView = type { %class.GrowableArrayBase, ptr }
%class.GrowableArrayBase = type { i32, i32 }
%class.GrowableArrayMetadata = type { i64 }
%class.G1CollectionCandidateRegionList = type { %class.GrowableArray.2 }
%class.GrowableArray.2 = type { %class.GrowableArrayWithAllocator.3, %class.GrowableArrayMetadata }
%class.GrowableArrayWithAllocator.3 = type { %class.GrowableArrayView.4 }
%class.GrowableArrayView.4 = type { %class.GrowableArrayBase, ptr }
%class.G1CollectedHeap = type { %class.CollectedHeap, ptr, ptr, ptr, ptr, ptr, %class.TimeInstant, %class.G1HeapRegionSet, %class.G1HeapRegionSet, %class.G1MonotonicArenaMemoryStats, %class.G1MonotonicArenaMemoryStats, ptr, %class.G1RegionMappingChangedListener, ptr, %class.G1HeapRegionManager, ptr, %class.G1YoungGCAllocationFailureInjector, ptr, i64, i64, %class.G1EvacStats, %class.G1EvacStats, ptr, i32, i32, %class.G1CollectorState, i32, i32, %class.G1EdenRegions, %class.G1SurvivorRegions, ptr, ptr, ptr, ptr, %class.G1CollectionSet, ptr, %class.G1CardSetConfiguration, %class.G1MonotonicArenaFreePool, ptr, ptr, ptr, ptr, ptr, %class.G1STWIsAliveClosure, %class.G1STWSubjectToDiscoveryClosure, ptr, %class.G1CMIsAliveClosure, %class.G1CMSubjectToDiscoveryClosure, %class.G1HeapRegionAttrBiasedMappedArray }
%class.CollectedHeap = type { ptr, ptr, i64, i64, %class.SoftRefPolicy, %class.MemRegion, i8, i64, i32, i32, i32, i32, ptr, ptr }
%class.SoftRefPolicy = type { i8, i8 }
%class.TimeInstant = type { %class.CompositeCounterRepresentation }
%class.CompositeCounterRepresentation = type { %class.Representation }
%class.Representation = type { %class.PairRep }
%class.PairRep = type { i64, i64 }
%class.G1HeapRegionSet = type { %class.G1HeapRegionSetBase.base, [7 x i8] }
%class.G1HeapRegionSetBase.base = type <{ ptr, ptr, i32, [4 x i8], ptr, i8 }>
%class.G1MonotonicArenaMemoryStats = type { [4 x i64], [4 x i64] }
%class.G1RegionMappingChangedListener = type { %class.G1MappingChangedListener }
%class.G1HeapRegionManager = type { ptr, ptr, %class.G1CommittedRegionMap, i32, [4 x i8], %class.G1HeapRegionTable, ptr, ptr, %class.G1FreeRegionList }
%class.G1CommittedRegionMap = type { ptr, %class.CHeapBitMap, %class.CHeapBitMap, i32, i32 }
%class.CHeapBitMap = type <{ %class.GrowableBitMap, i8, [7 x i8] }>
%class.GrowableBitMap = type { %class.BitMap }
%class.G1HeapRegionTable = type { %class.G1BiasedMappedArray.base, [4 x i8] }
%class.G1BiasedMappedArray.base = type { %class.G1BiasedMappedArrayBase.base }
%class.G1BiasedMappedArrayBase.base = type <{ ptr, ptr, ptr, i64, ptr, i64, i32 }>
%class.G1FreeRegionList = type { %class.G1HeapRegionSetBase.base, ptr, ptr, ptr, ptr }
%class.G1YoungGCAllocationFailureInjector = type { i8 }
%class.G1EvacStats = type { %class.PLABStats, i64, i64, %class.AdaptiveWeightedAverage, i64, i32, i64, i64, i64, i64, i64 }
%class.PLABStats = type { ptr, ptr, i64, i64, i64, i64 }
%class.AdaptiveWeightedAverage = type { float, i32, i32, i8, float }
%class.G1CollectorState = type { i8, i8, i8, i8, i8, i8, i8 }
%class.G1EdenRegions = type { i32, i64, %class.G1RegionsOnNodes }
%class.G1RegionsOnNodes = type { ptr, ptr }
%class.G1SurvivorRegions = type { ptr, i64, %class.G1RegionsOnNodes }
%class.G1CardSetConfiguration = type { i32, i32, i32, i32, i32, i32, i32, i32, i32, i32, i32, ptr }
%class.G1MonotonicArenaFreePool = type { i32, ptr }
%class.G1STWSubjectToDiscoveryClosure = type { %class.BoolObjectClosure, ptr }
%class.G1HeapRegionAttrBiasedMappedArray = type { %class.G1BiasedMappedArray.base.6, [4 x i8] }
%class.G1BiasedMappedArray.base.6 = type { %class.G1BiasedMappedArrayBase.base }
%class.G1BiasedMappedArrayBase = type <{ ptr, ptr, ptr, i64, ptr, i64, i32, [4 x i8] }>
%struct.G1HeapRegionAttr = type { i8, i8, i8 }
%class.G1HeapRegionSetBase = type <{ ptr, ptr, i32, [4 x i8], ptr, i8, [7 x i8] }>

; Function Attrs: mustprogress nounwind uwtable
define linkonce_odr hidden noundef ptr @_ZNK19G1BiasedMappedArrayI16G1HeapRegionAttrE4baseEv(ptr noundef nonnull align 8 dereferenceable(52) %0) #1 comdat align 2 {
  %2 = alloca ptr, align 8
  store ptr %0, ptr %2, align 8
  %3 = load ptr, ptr %2, align 8
  %4 = getelementptr inbounds %class.G1BiasedMappedArrayBase, ptr %3, i32 0, i32 2
  %5 = load ptr, ptr %4, align 8
  ret ptr %5
}

; Function Attrs: mustprogress nounwind uwtable
define linkonce_odr hidden void @_ZNK23G1BiasedMappedArrayBase12verify_indexEm(ptr noundef nonnull align 8 dereferenceable(52) %0, i64 noundef %1) #1 comdat align 2 {
  %3 = alloca ptr, align 8
  %4 = alloca i64, align 8
  store ptr %0, ptr %3, align 8
  store i64 %1, ptr %4, align 8
  ret void
}

; Function Attrs: mustprogress nounwind uwtable
define linkonce_odr hidden void @_ZN12G1HeapRegion18set_containing_setEP19G1HeapRegionSetBase(ptr noundef nonnull align 8 dereferenceable(136) %0, ptr noundef %1) #1 comdat align 2 {
  %3 = alloca ptr, align 8
  %4 = alloca ptr, align 8
  store ptr %0, ptr %3, align 8
  store ptr %1, ptr %4, align 8
  ret void
}

; Function Attrs: mustprogress nounwind uwtable
define linkonce_odr hidden void @_ZN19G1HeapRegionSetBase13verify_regionEP12G1HeapRegion(ptr noundef nonnull align 8 dereferenceable(33) %0, ptr noundef %1) #1 comdat align 2 {
  %3 = alloca ptr, align 8
  %4 = alloca ptr, align 8
  store ptr %0, ptr %3, align 8
  store ptr %1, ptr %4, align 8
  ret void
}

; Function Attrs: mustprogress nounwind uwtable
define linkonce_odr hidden void @_ZN19G1HeapRegionSetBase15check_mt_safetyEv(ptr noundef nonnull align 8 dereferenceable(33) %0) #1 comdat align 2 {
  %2 = alloca ptr, align 8
  store ptr %0, ptr %2, align 8
  %3 = load ptr, ptr %2, align 8
  %4 = getelementptr inbounds %class.G1HeapRegionSetBase, ptr %3, i32 0, i32 1
  %5 = load ptr, ptr %4, align 8
  %6 = icmp ne ptr %5, null
  br i1 %6, label %7, label %13

7:                                                ; preds = %1
  %8 = getelementptr inbounds %class.G1HeapRegionSetBase, ptr %3, i32 0, i32 1
  %9 = load ptr, ptr %8, align 8
  %10 = load ptr, ptr %9, align 8
  %11 = getelementptr inbounds ptr, ptr %10, i64 0
  %12 = load ptr, ptr %11, align 8
  call void %12(ptr noundef nonnull align 8 dereferenceable(8) %9)
  br label %13

13:                                               ; preds = %7, %1
  ret void
}

; Function Attrs: mustprogress nounwind uwtable
define linkonce_odr hidden void @_ZN19G1BiasedMappedArrayI16G1HeapRegionAttrE12set_by_indexEmS0_(ptr noundef nonnull align 8 dereferenceable(52) %0, i64 noundef %1, i24 %2) #1 comdat align 2 {
  %4 = alloca %struct.G1HeapRegionAttr, align 1
  %5 = alloca i24, align 4
  %6 = alloca ptr, align 8
  %7 = alloca i64, align 8
  store i24 %2, ptr %5, align 4
  call void @llvm.memcpy.p0.p0.i64(ptr align 1 %4, ptr align 4 %5, i64 3, i1 false)
  store ptr %0, ptr %6, align 8
  store i64 %1, ptr %7, align 8
  %8 = load ptr, ptr %6, align 8
  %9 = load i64, ptr %7, align 8
  call void @_ZNK23G1BiasedMappedArrayBase12verify_indexEm(ptr noundef nonnull align 8 dereferenceable(52) %8, i64 noundef %9)
  %10 = call noundef ptr @_ZNK19G1BiasedMappedArrayI16G1HeapRegionAttrE4baseEv(ptr noundef nonnull align 8 dereferenceable(52) %8)
  %11 = load i64, ptr %7, align 8
  %12 = getelementptr inbounds %struct.G1HeapRegionAttr, ptr %10, i64 %11
  call void @llvm.memcpy.p0.p0.i64(ptr align 1 %12, ptr align 1 %4, i64 3, i1 false)
  ret void
}

; Function Attrs: mustprogress nounwind uwtable
define linkonce_odr hidden void @_ZN16G1HeapRegionAttrC2Eabb(ptr noundef nonnull align 1 dereferenceable(3) %0, i8 noundef signext %1, i1 noundef zeroext %2, i1 noundef zeroext %3) unnamed_addr #1 comdat align 2 {
  %5 = alloca ptr, align 8
  %6 = alloca i8, align 1
  %7 = alloca i8, align 1
  %8 = alloca i8, align 1
  store ptr %0, ptr %5, align 8
  store i8 %1, ptr %6, align 1
  %9 = zext i1 %2 to i8
  store i8 %9, ptr %7, align 1
  %10 = zext i1 %3 to i8
  store i8 %10, ptr %8, align 1
  %11 = load ptr, ptr %5, align 8
  %12 = getelementptr inbounds %struct.G1HeapRegionAttr, ptr %11, i32 0, i32 0
  %13 = load i8, ptr %7, align 1
  %14 = trunc i8 %13 to i1
  %15 = select i1 %14, i32 1, i32 0
  %16 = trunc i32 %15 to i8
  store i8 %16, ptr %12, align 1
  %17 = getelementptr inbounds %struct.G1HeapRegionAttr, ptr %11, i32 0, i32 1
  %18 = load i8, ptr %6, align 1
  store i8 %18, ptr %17, align 1
  %19 = getelementptr inbounds %struct.G1HeapRegionAttr, ptr %11, i32 0, i32 2
  %20 = load i8, ptr %8, align 1
  %21 = trunc i8 %20 to i1
  %22 = select i1 %21, i32 1, i32 0
  %23 = trunc i32 %22 to i8
  store i8 %23, ptr %19, align 1
  ret void
}

; Function Attrs: mustprogress nounwind uwtable
define linkonce_odr hidden void @_ZN19G1HeapRegionSetBase6removeEP12G1HeapRegion(ptr noundef nonnull align 8 dereferenceable(33) %0, ptr noundef %1) #1 comdat align 2 {
  %3 = alloca ptr, align 8
  %4 = alloca ptr, align 8
  store ptr %0, ptr %3, align 8
  store ptr %1, ptr %4, align 8
  %5 = load ptr, ptr %3, align 8
  call void @_ZN19G1HeapRegionSetBase15check_mt_safetyEv(ptr noundef nonnull align 8 dereferenceable(33) %5)
  %6 = load ptr, ptr %4, align 8
  call void @_ZN19G1HeapRegionSetBase13verify_regionEP12G1HeapRegion(ptr noundef nonnull align 8 dereferenceable(33) %5, ptr noundef %6)
  br label %7

7:                                                ; preds = %2
  br label %8

8:                                                ; preds = %7
  br label %9

9:                                                ; preds = %8
  br label %10

10:                                               ; preds = %9
  %11 = load ptr, ptr %4, align 8
  call void @_ZN12G1HeapRegion18set_containing_setEP19G1HeapRegionSetBase(ptr noundef nonnull align 8 dereferenceable(136) %11, ptr noundef null)
  br label %12

12:                                               ; preds = %10
  br label %13

13:                                               ; preds = %12
  %14 = getelementptr inbounds %class.G1HeapRegionSetBase, ptr %5, i32 0, i32 2
  %15 = load i32, ptr %14, align 8
  %16 = add i32 %15, -1
  store i32 %16, ptr %14, align 8
  ret void
}

; Function Attrs: mustprogress nounwind uwtable
define linkonce_odr hidden void @_ZN33G1HeapRegionAttrBiasedMappedArray10set_in_oldEmb(ptr noundef nonnull align 8 dereferenceable(52) %0, i64 noundef %1, i1 noundef zeroext %2) #1 comdat align 2 {
  %4 = alloca ptr, align 8
  %5 = alloca i64, align 8
  %6 = alloca i8, align 1
  %7 = alloca i8, align 1
  %8 = alloca %struct.G1HeapRegionAttr, align 1
  %9 = alloca i24, align 4
  store ptr %0, ptr %4, align 8
  store i64 %1, ptr %5, align 8
  %10 = zext i1 %2 to i8
  store i8 %10, ptr %6, align 1
  %11 = load ptr, ptr %4, align 8
  store i8 0, ptr %7, align 1
  %12 = load i64, ptr %5, align 8
  %13 = load i8, ptr %6, align 1
  %14 = trunc i8 %13 to i1
  call void @_ZN16G1HeapRegionAttrC2Eabb(ptr noundef nonnull align 1 dereferenceable(3) %8, i8 noundef signext 1, i1 noundef zeroext %14, i1 noundef zeroext false)
  call void @llvm.memcpy.p0.p0.i64(ptr align 4 %9, ptr align 1 %8, i64 3, i1 false)
  %15 = load i24, ptr %9, align 4
  call void @_ZN19G1BiasedMappedArrayI16G1HeapRegionAttrE12set_by_indexEmS0_(ptr noundef nonnull align 8 dereferenceable(52) %11, i64 noundef %12, i24 %15)
  ret void
}

; Function Attrs: mustprogress nounwind uwtable
define linkonce_odr hidden void @_ZN15G1CollectedHeap14old_set_removeEP12G1HeapRegion(ptr noundef nonnull align 8 dereferenceable(1488) %0, ptr noundef %1) #1 comdat align 2 {
  %3 = alloca ptr, align 8
  %4 = alloca ptr, align 8
  store ptr %0, ptr %3, align 8
  store ptr %1, ptr %4, align 8
  %5 = load ptr, ptr %3, align 8
  %6 = getelementptr inbounds %class.G1CollectedHeap, ptr %5, i32 0, i32 7
  %7 = load ptr, ptr %4, align 8
  call void @_ZN19G1HeapRegionSetBase6removeEP12G1HeapRegion(ptr noundef nonnull align 8 dereferenceable(33) %6, ptr noundef %7)
  ret void
}

; Function Attrs: mustprogress nounwind uwtable
define linkonce_odr hidden noundef i32 @_ZNK12G1HeapRegion9hrm_indexEv(ptr noundef nonnull align 8 dereferenceable(136) %0) #1 comdat align 2 {
  %2 = alloca ptr, align 8
  store ptr %0, ptr %2, align 8
  %3 = load ptr, ptr %2, align 8
  %4 = getelementptr inbounds %class.G1HeapRegion, ptr %3, i32 0, i32 6
  %5 = load i32, ptr %4, align 8
  ret i32 %5
}

; Function Attrs: mustprogress nounwind uwtable
define linkonce_odr hidden void @_ZN15G1CollectedHeap36register_old_region_with_region_attrEP12G1HeapRegion(ptr noundef nonnull align 8 dereferenceable(1488) %0, ptr noundef %1) #1 comdat align 2 {
  %3 = alloca ptr, align 8
  %4 = alloca ptr, align 8
  store ptr %0, ptr %3, align 8
  store ptr %1, ptr %4, align 8
  %5 = load ptr, ptr %3, align 8
  %6 = getelementptr inbounds %class.G1CollectedHeap, ptr %5, i32 0, i32 48
  %7 = load ptr, ptr %4, align 8
  %8 = call noundef i32 @_ZNK12G1HeapRegion9hrm_indexEv(ptr noundef nonnull align 8 dereferenceable(136) %7)
  %9 = zext i32 %8 to i64
  call void @_ZN33G1HeapRegionAttrBiasedMappedArray10set_in_oldEmb(ptr noundef nonnull align 8 dereferenceable(52) %6, i64 noundef %9, i1 noundef zeroext true)
  %10 = getelementptr inbounds %class.G1CollectedHeap, ptr %5, i32 0, i32 35
  %11 = load ptr, ptr %10, align 8
  %12 = load ptr, ptr %4, align 8
  %13 = call noundef i32 @_ZNK12G1HeapRegion9hrm_indexEv(ptr noundef nonnull align 8 dereferenceable(136) %12)
  call void @_ZN8G1RemSet24exclude_region_from_scanEj(ptr noundef nonnull align 8 dereferenceable(48) %11, i32 noundef %13)
  ret void
}

; Function Attrs: mustprogress nounwind uwtable
define hidden void @_ZN15G1CollectionSet14add_old_regionEP12G1HeapRegion(ptr noundef nonnull align 8 dereferenceable(160) %0, ptr noundef %1) #1 align 2 {
  %3 = alloca ptr, align 8
  %4 = alloca ptr, align 8
  store ptr %0, ptr %3, align 8
  store ptr %1, ptr %4, align 8
  %5 = load ptr, ptr %3, align 8
  br label %6

6:                                                ; preds = %2
  br label %7

7:                                                ; preds = %6
  %8 = getelementptr inbounds %class.G1CollectionSet, ptr %5, i32 0, i32 0
  %9 = load ptr, ptr %8, align 8
  %10 = load ptr, ptr %4, align 8
  call void @_ZN15G1CollectedHeap36register_old_region_with_region_attrEP12G1HeapRegion(ptr noundef nonnull align 8 dereferenceable(1488) %9, ptr noundef %10)
  %11 = load ptr, ptr %4, align 8
  %12 = call noundef i32 @_ZNK12G1HeapRegion9hrm_indexEv(ptr noundef nonnull align 8 dereferenceable(136) %11)
  %13 = getelementptr inbounds %class.G1CollectionSet, ptr %5, i32 0, i32 3
  %14 = load ptr, ptr %13, align 8
  %15 = getelementptr inbounds %class.G1CollectionSet, ptr %5, i32 0, i32 4
  %16 = load volatile i32, ptr %15, align 8
  %17 = add i32 %16, 1
  store volatile i32 %17, ptr %15, align 8
  %18 = zext i32 %16 to i64
  %19 = getelementptr inbounds i32, ptr %14, i64 %18
  store i32 %12, ptr %19, align 4
  %20 = getelementptr inbounds %class.G1CollectionSet, ptr %5, i32 0, i32 8
  %21 = load i32, ptr %20, align 8
  %22 = add i32 %21, 1
  store i32 %22, ptr %20, align 8
  %23 = getelementptr inbounds %class.G1CollectionSet, ptr %5, i32 0, i32 0
  %24 = load ptr, ptr %23, align 8
  %25 = load ptr, ptr %4, align 8
  call void @_ZN15G1CollectedHeap14old_set_removeEP12G1HeapRegion(ptr noundef nonnull align 8 dereferenceable(1488) %24, ptr noundef %25)
  ret void
}