; Function Attrs: mustprogress nounwind uwtable
define hidden void @_ZN15G1CollectionSet14add_old_regionEP12G1HeapRegion(ptr noundef nonnull align 8 dereferenceable(160) %0, ptr nocapture noundef readonly %1) local_unnamed_addr #1 align 2 {
  %3 = load ptr, ptr %0, align 8
  %4 = getelementptr inbounds i8, ptr %1, i64 48
  %5 = load i32, ptr %4, align 8
  %6 = zext i32 %5 to i64
  %7 = getelementptr inbounds i8, ptr %3, i64 1448
  %8 = load ptr, ptr %7, align 8
  %9 = getelementptr inbounds %struct.G1HeapRegionAttr, ptr %8, i64 %6
  store i24 257, ptr %9, align 1
  %10 = getelementptr inbounds i8, ptr %3, i64 1240
  %11 = load ptr, ptr %10, align 8
  %12 = load i32, ptr %4, align 8
  tail call void @_ZN8G1RemSet24exclude_region_from_scanEj(ptr noundef nonnull align 8 dereferenceable(48) %11, i32 noundef %12) #15
  %13 = load i32, ptr %4, align 8
  %14 = getelementptr inbounds i8, ptr %0, i64 88
  %15 = load ptr, ptr %14, align 8
  %16 = getelementptr inbounds i8, ptr %0, i64 96
  %17 = load volatile i32, ptr %16, align 8
  %18 = add i32 %17, 1
  store volatile i32 %18, ptr %16, align 8
  %19 = zext i32 %17 to i64
  %20 = getelementptr inbounds i32, ptr %15, i64 %19
  store i32 %13, ptr %20, align 4
  %21 = getelementptr inbounds i8, ptr %0, i64 112
  %22 = load i32, ptr %21, align 8
  %23 = add i32 %22, 1
  store i32 %23, ptr %21, align 8
  %24 = load ptr, ptr %0, align 8
  %25 = getelementptr inbounds i8, ptr %24, i64 168
  %26 = load ptr, ptr %25, align 8
  %.not.i.i.i = icmp eq ptr %26, null
  br i1 %.not.i.i.i, label %_ZN15G1CollectedHeap14old_set_removeEP12G1HeapRegion.exit, label %27

27:                                               ; preds = %2
  %28 = load ptr, ptr %26, align 8
  %29 = load ptr, ptr %28, align 8
  tail call void %29(ptr noundef nonnull align 8 dereferenceable(8) %26) #15
  br label %_ZN15G1CollectedHeap14old_set_removeEP12G1HeapRegion.exit

_ZN15G1CollectedHeap14old_set_removeEP12G1HeapRegion.exit: ; preds = %2, %27
  %30 = getelementptr inbounds i8, ptr %24, i64 176
  %31 = load i32, ptr %30, align 8
  %32 = add i32 %31, -1
  store i32 %32, ptr %30, align 8
  ret void
}